target datalayout = "e-m:e-p270:32:32-p271:32:32-p272:64:64-i64:64-i128:128-f80:128-n8:16:32:64-S128"
target triple = "x86_64-pc-linux-gnu"

%struct._stritem = type { ptr, ptr, ptr, i32, i32, i32, i16, i16, i8, i8, [0 x %union.anon] }
%union.anon = type { i64 }

@hashpower = dso_local global i32 16, align 4
@primary_hashtable = internal global ptr null, align 8
@expanding = internal global i8 0, align 1
@expand_bucket = internal global i64 0, align 8
@old_hashtable = internal global ptr null, align 8

; Function Attrs: nounwind uwtable
define internal ptr @_hashitem_before(ptr noundef %0, i64 noundef %1, i32 noundef %2) #0 {
  %4 = alloca ptr, align 8
  %5 = alloca i64, align 8
  %6 = alloca i32, align 4
  %7 = alloca ptr, align 8
  %8 = alloca i64, align 8
  store ptr %0, ptr %4, align 8, !tbaa !19
  store i64 %1, ptr %5, align 8, !tbaa !21
  store i32 %2, ptr %6, align 4, !tbaa !4
  call void @llvm.lifetime.start.p0(i64 8, ptr %7) #9
  call void @llvm.lifetime.start.p0(i64 8, ptr %8) #9
  %9 = load i8, ptr @expanding, align 1, !tbaa !22, !range !23, !noundef !24
  %10 = trunc i8 %9 to i1
  br i1 %10, label %11, label %26

11:                                               ; preds = %3
  %12 = load i32, ptr %6, align 4, !tbaa !4
  %13 = zext i32 %12 to i64
  %14 = load i32, ptr @hashpower, align 4, !tbaa !4
  %15 = sub i32 %14, 1
  %16 = zext i32 %15 to i64
  %17 = shl i64 1, %16
  %18 = sub i64 %17, 1
  %19 = and i64 %13, %18
  store i64 %19, ptr %8, align 8, !tbaa !21
  %20 = load i64, ptr @expand_bucket, align 8, !tbaa !21
  %21 = icmp uge i64 %19, %20
  br i1 %21, label %22, label %26

22:                                               ; preds = %11
  %23 = load ptr, ptr @old_hashtable, align 8, !tbaa !8
  %24 = load i64, ptr %8, align 8, !tbaa !21
  %25 = getelementptr inbounds nuw ptr, ptr %23, i64 %24
  store ptr %25, ptr %7, align 8, !tbaa !8
  br label %36

26:                                               ; preds = %11, %3
  %27 = load ptr, ptr @primary_hashtable, align 8, !tbaa !8
  %28 = load i32, ptr %6, align 4, !tbaa !4
  %29 = zext i32 %28 to i64
  %30 = load i32, ptr @hashpower, align 4, !tbaa !4
  %31 = zext i32 %30 to i64
  %32 = shl i64 1, %31
  %33 = sub i64 %32, 1
  %34 = and i64 %29, %33
  %35 = getelementptr inbounds nuw ptr, ptr %27, i64 %34
  store ptr %35, ptr %7, align 8, !tbaa !8
  br label %36

36:                                               ; preds = %26, %22
  br label %37

37:                                               ; preds = %70, %36
  %38 = load ptr, ptr %7, align 8, !tbaa !8
  %39 = load ptr, ptr %38, align 8, !tbaa !25
  %40 = icmp ne ptr %39, null
  br i1 %40, label %41, label %68

41:                                               ; preds = %37
  %42 = load i64, ptr %5, align 8, !tbaa !21
  %43 = load ptr, ptr %7, align 8, !tbaa !8
  %44 = load ptr, ptr %43, align 8, !tbaa !25
  %45 = getelementptr inbounds nuw %struct._stritem, ptr %44, i32 0, i32 9
  %46 = load i8, ptr %45, align 1, !tbaa !27
  %47 = zext i8 %46 to i64
  %48 = icmp ne i64 %42, %47
  br i1 %48, label %66, label %49

49:                                               ; preds = %41
  %50 = load ptr, ptr %4, align 8, !tbaa !19
  %51 = load ptr, ptr %7, align 8, !tbaa !8
  %52 = load ptr, ptr %51, align 8, !tbaa !25
  %53 = getelementptr inbounds nuw %struct._stritem, ptr %52, i32 0, i32 10
  %54 = load ptr, ptr %7, align 8, !tbaa !8
  %55 = load ptr, ptr %54, align 8, !tbaa !25
  %56 = getelementptr inbounds nuw %struct._stritem, ptr %55, i32 0, i32 7
  %57 = load i16, ptr %56, align 2, !tbaa !28
  %58 = zext i16 %57 to i32
  %59 = and i32 %58, 2
  %60 = icmp ne i32 %59, 0
  %61 = select i1 %60, i64 8, i64 0
  %62 = getelementptr inbounds nuw i8, ptr %53, i64 %61
  %63 = load i64, ptr %5, align 8, !tbaa !21
  %64 = call i32 @memcmp(ptr noundef %50, ptr noundef %62, i64 noundef %63) #11
  %65 = icmp ne i32 %64, 0
  br label %66

66:                                               ; preds = %49, %41
  %67 = phi i1 [ true, %41 ], [ %65, %49 ]
  br label %68

68:                                               ; preds = %66, %37
  %69 = phi i1 [ false, %37 ], [ %67, %66 ]
  br i1 %69, label %70, label %74

70:                                               ; preds = %68
  %71 = load ptr, ptr %7, align 8, !tbaa !8
  %72 = load ptr, ptr %71, align 8, !tbaa !25
  %73 = getelementptr inbounds nuw %struct._stritem, ptr %72, i32 0, i32 2
  store ptr %73, ptr %7, align 8, !tbaa !8
  br label %37, !llvm.loop !32

74:                                               ; preds = %68
  %75 = load ptr, ptr %7, align 8, !tbaa !8
  call void @llvm.lifetime.end.p0(i64 8, ptr %8) #9
  call void @llvm.lifetime.end.p0(i64 8, ptr %7) #9
  ret ptr %75
}

; Function Attrs: nounwind uwtable
define dso_local void @assoc_delete(ptr noundef %0, i64 noundef %1, i32 noundef %2) #0 {
  %4 = alloca ptr, align 8
  %5 = alloca i64, align 8
  %6 = alloca i32, align 4
  %7 = alloca ptr, align 8
  %8 = alloca ptr, align 8
  %9 = alloca i32, align 4
  store ptr %0, ptr %4, align 8, !tbaa !19
  store i64 %1, ptr %5, align 8, !tbaa !21
  store i32 %2, ptr %6, align 4, !tbaa !4
  call void @llvm.lifetime.start.p0(i64 8, ptr %7) #9
  %10 = load ptr, ptr %4, align 8, !tbaa !19
  %11 = load i64, ptr %5, align 8, !tbaa !21
  %12 = load i32, ptr %6, align 4, !tbaa !4
  %13 = call ptr @_hashitem_before(ptr noundef %10, i64 noundef %11, i32 noundef %12)
  store ptr %13, ptr %7, align 8, !tbaa !8
  %14 = load ptr, ptr %7, align 8, !tbaa !8
  %15 = load ptr, ptr %14, align 8, !tbaa !25
  %16 = icmp ne ptr %15, null
  br i1 %16, label %17, label %27

17:                                               ; preds = %3
  call void @llvm.lifetime.start.p0(i64 8, ptr %8) #9
  %18 = load ptr, ptr %7, align 8, !tbaa !8
  %19 = load ptr, ptr %18, align 8, !tbaa !25
  %20 = getelementptr inbounds nuw %struct._stritem, ptr %19, i32 0, i32 2
  %21 = load ptr, ptr %20, align 8, !tbaa !25
  store ptr %21, ptr %8, align 8, !tbaa !25
  %22 = load ptr, ptr %7, align 8, !tbaa !8
  %23 = load ptr, ptr %22, align 8, !tbaa !25
  %24 = getelementptr inbounds nuw %struct._stritem, ptr %23, i32 0, i32 2
  store ptr null, ptr %24, align 8, !tbaa !25
  %25 = load ptr, ptr %8, align 8, !tbaa !25
  %26 = load ptr, ptr %7, align 8, !tbaa !8
  store ptr %25, ptr %26, align 8, !tbaa !25
  store i32 1, ptr %9, align 4
  call void @llvm.lifetime.end.p0(i64 8, ptr %8) #9
  br label %28

27:                                               ; preds = %3
  store i32 0, ptr %9, align 4
  br label %28

28:                                               ; preds = %27, %17
  call void @llvm.lifetime.end.p0(i64 8, ptr %7) #9
  %29 = load i32, ptr %9, align 4
  switch i32 %29, label %31 [
    i32 0, label %30
    i32 1, label %30
  ]

30:                                               ; preds = %28, %28
  ret void

31:                                               ; preds = %28
  unreachable
}