; Function Attrs: nofree nounwind memory(readwrite, inaccessiblemem: none) uwtable
define dso_local void @assoc_delete(ptr noundef readonly captures(none) %0, i64 noundef %1, i32 noundef %2) local_unnamed_addr #8 {
  %.b16.i = load i1, ptr @expanding, align 1
  %.pre.i = load i32, ptr @hashpower, align 4, !tbaa !4
  %4 = zext i32 %2 to i64
  br i1 %.b16.i, label %5, label %._crit_edge.i

5:                                                ; preds = %3
  %6 = add i32 %.pre.i, -1
  %7 = zext nneg i32 %6 to i64
  %notmask.i = shl nsw i64 -1, %7
  %8 = xor i64 %notmask.i, -1
  %9 = and i64 %8, %4
  %10 = load i64, ptr @expand_bucket, align 8, !tbaa !19
  %.not.i = icmp ult i64 %9, %10
  br i1 %.not.i, label %._crit_edge.i, label %11

11:                                               ; preds = %5
  %12 = load ptr, ptr @old_hashtable, align 8, !tbaa !8
  %13 = getelementptr inbounds nuw ptr, ptr %12, i64 %9
  br label %19

._crit_edge.i:                                    ; preds = %5, %3
  %14 = load ptr, ptr @primary_hashtable, align 8, !tbaa !8
  %15 = zext nneg i32 %.pre.i to i64
  %notmask17.i = shl nsw i64 -1, %15
  %16 = xor i64 %notmask17.i, -1
  %17 = and i64 %16, %4
  %18 = getelementptr inbounds nuw ptr, ptr %14, i64 %17
  br label %19

19:                                               ; preds = %._crit_edge.i, %11
  %.0.i = phi ptr [ %13, %11 ], [ %18, %._crit_edge.i ]
  %20 = load ptr, ptr %.0.i, align 8, !tbaa !20
  %.not1822.i = icmp eq ptr %20, null
  br i1 %.not1822.i, label %_hashitem_before.exit.thread, label %.lr.ph.i

.lr.ph.i:                                         ; preds = %19, %.critedge2.i
  %.pr = phi ptr [ %33, %.critedge2.i ], [ %20, %19 ]
  %.123.i = phi ptr [ %32, %.critedge2.i ], [ %.0.i, %19 ]
  %21 = getelementptr inbounds nuw i8, ptr %.pr, i64 41
  %22 = load i8, ptr %21, align 1, !tbaa !22
  %23 = zext i8 %22 to i64
  %.not19.i = icmp eq i64 %1, %23
  br i1 %.not19.i, label %24, label %.critedge2.i

24:                                               ; preds = %.lr.ph.i
  %25 = getelementptr inbounds nuw i8, ptr %.pr, i64 48
  %26 = getelementptr inbounds nuw i8, ptr %.pr, i64 38
  %27 = load i16, ptr %26, align 2, !tbaa !23
  %28 = shl i16 %27, 2
  %29 = and i16 %28, 8
  %30 = zext nneg i16 %29 to i64
  %31 = getelementptr inbounds nuw i8, ptr %25, i64 %30
  %bcmp.i = tail call i32 @bcmp(ptr readonly %0, ptr nonnull %31, i64 %1)
  %.not21.i = icmp eq i32 %bcmp.i, 0
  br i1 %.not21.i, label %_hashitem_before.exit, label %.critedge2.i

.critedge2.i:                                     ; preds = %24, %.lr.ph.i
  %32 = getelementptr inbounds nuw i8, ptr %.pr, i64 16
  %33 = load ptr, ptr %32, align 8, !tbaa !20
  %.not18.i = icmp eq ptr %33, null
  br i1 %.not18.i, label %_hashitem_before.exit.thread, label %.lr.ph.i, !llvm.loop !27

_hashitem_before.exit:                            ; preds = %24
  %34 = getelementptr inbounds nuw i8, ptr %.pr, i64 16
  %35 = load ptr, ptr %34, align 8, !tbaa !20
  store ptr null, ptr %34, align 8, !tbaa !20
  store ptr %35, ptr %.123.i, align 8, !tbaa !20
  br label %_hashitem_before.exit.thread

_hashitem_before.exit.thread:                     ; preds = %.critedge2.i, %19, %_hashitem_before.exit
  ret void
}